; Function Attrs: mustprogress nofree norecurse nosync nounwind willreturn memory(read, inaccessiblemem: none) uwtable
define hidden noundef i32 @_ZN23java_lang_reflect_Field9modifiersEP7oopDesc(ptr noundef %0) local_unnamed_addr #8 align 2 {
  %2 = load i32, ptr @_ZN23java_lang_reflect_Field17_modifiers_offsetE, align 4
  %3 = ptrtoint ptr %0 to i64
  %4 = sext i32 %2 to i64
  %5 = add nsw i64 %4, %3
  %6 = inttoptr i64 %5 to ptr
  %7 = load i32, ptr %6, align 4
  ret i32 %7
}